target datalayout = "e-m:e-p270:32:32-p271:32:32-p272:64:64-i64:64-i128:128-f80:128-n8:16:32:64-S128"
target triple = "x86_64-pc-linux-gnu"

%class.dtObstacleAvoidanceQuery = type <{ %struct.dtObstacleAvoidanceParams, float, float, float, i32, [4 x i8], ptr, i32, i32, ptr, i32, [4 x i8] }>
%struct.dtObstacleAvoidanceParams = type { float, float, float, float, float, float, i8, i8, i8, i8 }
%struct.dtObstacleCircle = type { [3 x float], [3 x float], [3 x float], float, [3 x float], [3 x float] }

; Function Attrs: mustprogress nounwind uwtable
define linkonce_odr void @_Z7dtVcopyPfPKf(ptr noundef %0, ptr noundef %1) #2 comdat {
  %3 = alloca ptr, align 8
  %4 = alloca ptr, align 8
  store ptr %0, ptr %3, align 8
  store ptr %1, ptr %4, align 8
  %5 = load ptr, ptr %4, align 8
  %6 = getelementptr inbounds float, ptr %5, i64 0
  %7 = load float, ptr %6, align 4
  %8 = load ptr, ptr %3, align 8
  %9 = getelementptr inbounds float, ptr %8, i64 0
  store float %7, ptr %9, align 4
  %10 = load ptr, ptr %4, align 8
  %11 = getelementptr inbounds float, ptr %10, i64 1
  %12 = load float, ptr %11, align 4
  %13 = load ptr, ptr %3, align 8
  %14 = getelementptr inbounds float, ptr %13, i64 1
  store float %12, ptr %14, align 4
  %15 = load ptr, ptr %4, align 8
  %16 = getelementptr inbounds float, ptr %15, i64 2
  %17 = load float, ptr %16, align 4
  %18 = load ptr, ptr %3, align 8
  %19 = getelementptr inbounds float, ptr %18, i64 2
  store float %17, ptr %19, align 4
  ret void
}

; Function Attrs: mustprogress uwtable
define void @_ZN24dtObstacleAvoidanceQuery9addCircleEPKffS1_S1_(ptr noundef nonnull align 8 dereferenceable(76) %0, ptr noundef %1, float noundef %2, ptr noundef %3, ptr noundef %4) #0 align 2 {
  %6 = alloca ptr, align 8
  %7 = alloca ptr, align 8
  %8 = alloca float, align 4
  %9 = alloca ptr, align 8
  %10 = alloca ptr, align 8
  %11 = alloca ptr, align 8
  store ptr %0, ptr %6, align 8
  store ptr %1, ptr %7, align 8
  store float %2, ptr %8, align 4
  store ptr %3, ptr %9, align 8
  store ptr %4, ptr %10, align 8
  %12 = load ptr, ptr %6, align 8
  %13 = getelementptr inbounds %class.dtObstacleAvoidanceQuery, ptr %12, i32 0, i32 7
  %14 = load i32, ptr %13, align 8
  %15 = getelementptr inbounds %class.dtObstacleAvoidanceQuery, ptr %12, i32 0, i32 4
  %16 = load i32, ptr %15, align 8
  %17 = icmp sge i32 %14, %16
  br i1 %17, label %18, label %19

18:                                               ; preds = %5
  br label %42

19:                                               ; preds = %5
  %20 = getelementptr inbounds %class.dtObstacleAvoidanceQuery, ptr %12, i32 0, i32 6
  %21 = load ptr, ptr %20, align 8
  %22 = getelementptr inbounds %class.dtObstacleAvoidanceQuery, ptr %12, i32 0, i32 7
  %23 = load i32, ptr %22, align 8
  %24 = add nsw i32 %23, 1
  store i32 %24, ptr %22, align 8
  %25 = sext i32 %23 to i64
  %26 = getelementptr inbounds %struct.dtObstacleCircle, ptr %21, i64 %25
  store ptr %26, ptr %11, align 8
  %27 = load ptr, ptr %11, align 8
  %28 = getelementptr inbounds %struct.dtObstacleCircle, ptr %27, i32 0, i32 0
  %29 = getelementptr inbounds [3 x float], ptr %28, i64 0, i64 0
  %30 = load ptr, ptr %7, align 8
  call void @_Z7dtVcopyPfPKf(ptr noundef %29, ptr noundef %30)
  %31 = load float, ptr %8, align 4
  %32 = load ptr, ptr %11, align 8
  %33 = getelementptr inbounds %struct.dtObstacleCircle, ptr %32, i32 0, i32 3
  store float %31, ptr %33, align 4
  %34 = load ptr, ptr %11, align 8
  %35 = getelementptr inbounds %struct.dtObstacleCircle, ptr %34, i32 0, i32 1
  %36 = getelementptr inbounds [3 x float], ptr %35, i64 0, i64 0
  %37 = load ptr, ptr %9, align 8
  call void @_Z7dtVcopyPfPKf(ptr noundef %36, ptr noundef %37)
  %38 = load ptr, ptr %11, align 8
  %39 = getelementptr inbounds %struct.dtObstacleCircle, ptr %38, i32 0, i32 2
  %40 = getelementptr inbounds [3 x float], ptr %39, i64 0, i64 0
  %41 = load ptr, ptr %10, align 8
  call void @_Z7dtVcopyPfPKf(ptr noundef %40, ptr noundef %41)
  br label %42

42:                                               ; preds = %19, %18
  ret void
}