; Function Attrs: mustprogress nofree norecurse nosync nounwind willreturn memory(write, argmem: readwrite, inaccessiblemem: none) uwtable
define void @_ZN24dtObstacleAvoidanceQuery9addCircleEPKffS1_S1_(ptr noundef nonnull align 8 captures(none) dereferenceable(76) %0, ptr noundef readonly captures(none) %1, float noundef %2, ptr noundef readonly captures(none) %3, ptr noundef readonly captures(none) %4) local_unnamed_addr #8 align 2 {
  %6 = getelementptr inbounds nuw i8, ptr %0, i64 56
  %7 = load i32, ptr %6, align 8
  %8 = getelementptr inbounds nuw i8, ptr %0, i64 40
  %9 = load i32, ptr %8, align 8
  %.not = icmp slt i32 %7, %9
  br i1 %.not, label %10, label %40

10:                                               ; preds = %5
  %11 = getelementptr inbounds nuw i8, ptr %0, i64 48
  %12 = load ptr, ptr %11, align 8
  %13 = add nsw i32 %7, 1
  store i32 %13, ptr %6, align 8
  %14 = sext i32 %7 to i64
  %15 = getelementptr inbounds %struct.dtObstacleCircle, ptr %12, i64 %14
  %16 = load float, ptr %1, align 4
  store float %16, ptr %15, align 4
  %17 = getelementptr inbounds nuw i8, ptr %1, i64 4
  %18 = load float, ptr %17, align 4
  %19 = getelementptr inbounds nuw i8, ptr %15, i64 4
  store float %18, ptr %19, align 4
  %20 = getelementptr inbounds nuw i8, ptr %1, i64 8
  %21 = load float, ptr %20, align 4
  %22 = getelementptr inbounds nuw i8, ptr %15, i64 8
  store float %21, ptr %22, align 4
  %23 = getelementptr inbounds nuw i8, ptr %15, i64 36
  store float %2, ptr %23, align 4
  %24 = getelementptr inbounds nuw i8, ptr %15, i64 12
  %25 = load float, ptr %3, align 4
  store float %25, ptr %24, align 4
  %26 = getelementptr inbounds nuw i8, ptr %3, i64 4
  %27 = load float, ptr %26, align 4
  %28 = getelementptr inbounds nuw i8, ptr %15, i64 16
  store float %27, ptr %28, align 4
  %29 = getelementptr inbounds nuw i8, ptr %3, i64 8
  %30 = load float, ptr %29, align 4
  %31 = getelementptr inbounds nuw i8, ptr %15, i64 20
  store float %30, ptr %31, align 4
  %32 = getelementptr inbounds nuw i8, ptr %15, i64 24
  %33 = load float, ptr %4, align 4
  store float %33, ptr %32, align 4
  %34 = getelementptr inbounds nuw i8, ptr %4, i64 4
  %35 = load float, ptr %34, align 4
  %36 = getelementptr inbounds nuw i8, ptr %15, i64 28
  store float %35, ptr %36, align 4
  %37 = getelementptr inbounds nuw i8, ptr %4, i64 8
  %38 = load float, ptr %37, align 4
  %39 = getelementptr inbounds nuw i8, ptr %15, i64 32
  store float %38, ptr %39, align 4
  br label %40

40:                                               ; preds = %5, %10
  ret void
}